target datalayout = "e-m:e-p270:32:32-p271:32:32-p272:64:64-i64:64-i128:128-f80:128-n8:16:32:64-S128"
target triple = "x86_64-pc-linux-gnu"

%struct.cli_ftw_cbdata = type { ptr }
%struct.client_parallel_data = type { i32, i32, i32, i32, i32, i32, i32, ptr }
%struct.fd_set = type { [16 x i64] }
%struct.SCANID = type { i32, ptr, ptr }

@clamdopts = external global ptr, align 8
@.str.3 = private unnamed_addr constant [42 x i8] c"Failed to determine real filename of %s.\0A\00", align 1
@.str.4 = private unnamed_addr constant [65 x i8] c"Quarantine of the file may fail if file path contains symlinks.\0A\00", align 1
@.str.5 = private unnamed_addr constant [22 x i8] c"Can't access file %s\0A\00", align 1
@.str.6 = private unnamed_addr constant [33 x i8] c"Memory allocation failed in ftw\0A\00", align 1
@.str.7 = private unnamed_addr constant [35 x i8] c"Directory recursion limit reached\0A\00", align 1
@.str.8 = private unnamed_addr constant [29 x i8] c"%s: Not supported file type\0A\00", align 1
@.str.9 = private unnamed_addr constant [36 x i8] c"select() failed during session: %s\0A\00", align 1
@.str.10 = private unnamed_addr constant [37 x i8] c"Failed to allocate scanid entry: %s\0A\00", align 1

; Function Attrs: nounwind uwtable
define internal i32 @parallel_callback(ptr noundef %0, ptr noundef %1, ptr noundef %2, i32 noundef %3, ptr noundef %4) #0 {
  %6 = alloca ptr, align 8
  %7 = alloca ptr, align 8
  %8 = alloca ptr, align 8
  %9 = alloca i32, align 4
  %10 = alloca ptr, align 8
  %11 = alloca i32, align 4
  %12 = alloca ptr, align 8
  %13 = alloca ptr, align 8
  %14 = alloca i32, align 4
  %15 = alloca ptr, align 8
  %16 = alloca %struct.fd_set, align 8
  %17 = alloca %struct.fd_set, align 8
  %18 = alloca i32, align 4
  %19 = alloca ptr, align 8
  %20 = alloca i32, align 4
  %21 = alloca ptr, align 8
  store ptr %0, ptr %6, align 8
  store ptr %1, ptr %7, align 8
  store ptr %2, ptr %8, align 8
  store i32 %3, ptr %9, align 4
  store ptr %4, ptr %10, align 8
  store i32 8, ptr %11, align 4
  %22 = load ptr, ptr %10, align 8
  %23 = getelementptr inbounds %struct.cli_ftw_cbdata, ptr %22, i32 0, i32 0
  %24 = load ptr, ptr %23, align 8
  store ptr %24, ptr %12, align 8
  store ptr null, ptr %13, align 8
  store i32 0, ptr %14, align 4
  store ptr null, ptr %15, align 8
  %25 = load i32, ptr %9, align 4
  %26 = icmp ne i32 %25, 1
  br i1 %26, label %27, label %39

27:                                               ; preds = %5
  %28 = load ptr, ptr %7, align 8
  %29 = call i32 @cli_realpath(ptr noundef %28, ptr noundef %15)
  %30 = icmp ne i32 0, %29
  br i1 %30, label %31, label %35

31:                                               ; preds = %27
  %32 = load ptr, ptr %7, align 8
  %33 = call i32 (i32, ptr, ...) @logg(i32 noundef 2, ptr noundef @.str.3, ptr noundef %32)
  %34 = call i32 (i32, ptr, ...) @logg(i32 noundef 2, ptr noundef @.str.4)
  br label %38

35:                                               ; preds = %27
  %36 = load ptr, ptr %7, align 8
  call void @free(ptr noundef %36) #7
  %37 = load ptr, ptr %15, align 8
  store ptr %37, ptr %7, align 8
  br label %38

38:                                               ; preds = %35, %31
  br label %39

39:                                               ; preds = %38, %5
  %40 = load ptr, ptr %7, align 8
  %41 = load ptr, ptr @clamdopts, align 8
  %42 = call i32 @chkpath(ptr noundef %40, ptr noundef %41)
  %43 = icmp ne i32 %42, 0
  br i1 %43, label %44, label %45

44:                                               ; preds = %39
  store i32 0, ptr %11, align 4
  br label %254

45:                                               ; preds = %39
  %46 = load ptr, ptr %12, align 8
  %47 = getelementptr inbounds %struct.client_parallel_data, ptr %46, i32 0, i32 1
  %48 = load i32, ptr %47, align 4
  %49 = add nsw i32 %48, 1
  store i32 %49, ptr %47, align 4
  %50 = load i32, ptr %9, align 4
  switch i32 %50, label %75 [
    i32 3, label %51
    i32 2, label %58
    i32 6, label %64
    i32 5, label %66
    i32 4, label %73
    i32 1, label %73
    i32 0, label %74
  ]

51:                                               ; preds = %45
  %52 = load ptr, ptr %7, align 8
  %53 = call i32 (i32, ptr, ...) @logg(i32 noundef 5, ptr noundef @.str.5, ptr noundef %52)
  %54 = load ptr, ptr %12, align 8
  %55 = getelementptr inbounds %struct.client_parallel_data, ptr %54, i32 0, i32 2
  %56 = load i32, ptr %55, align 8
  %57 = add nsw i32 %56, 1
  store i32 %57, ptr %55, align 8
  store i32 0, ptr %11, align 4
  br label %254

58:                                               ; preds = %45
  %59 = call i32 (i32, ptr, ...) @logg(i32 noundef 5, ptr noundef @.str.6)
  %60 = load ptr, ptr %12, align 8
  %61 = getelementptr inbounds %struct.client_parallel_data, ptr %60, i32 0, i32 2
  %62 = load i32, ptr %61, align 8
  %63 = add nsw i32 %62, 1
  store i32 %63, ptr %61, align 8
  store i32 20, ptr %11, align 4
  br label %254

64:                                               ; preds = %45
  %65 = call i32 (i32, ptr, ...) @logg(i32 noundef 4, ptr noundef @.str.7)
  store i32 0, ptr %11, align 4
  br label %254

66:                                               ; preds = %45
  %67 = load ptr, ptr %7, align 8
  %68 = call i32 (i32, ptr, ...) @logg(i32 noundef 4, ptr noundef @.str.8, ptr noundef %67)
  %69 = load ptr, ptr %12, align 8
  %70 = getelementptr inbounds %struct.client_parallel_data, ptr %69, i32 0, i32 2
  %71 = load i32, ptr %70, align 8
  %72 = add nsw i32 %71, 1
  store i32 %72, ptr %70, align 8
  br label %73

73:                                               ; preds = %66, %45, %45
  store i32 0, ptr %11, align 4
  br label %254

74:                                               ; preds = %45
  br label %75

75:                                               ; preds = %74, %45
  br label %76

76:                                               ; preds = %196, %177, %149, %75
  br label %77

77:                                               ; preds = %76
  store ptr %16, ptr %19, align 8
  store i32 0, ptr %18, align 4
  br label %78

78:                                               ; preds = %88, %77
  %79 = load i32, ptr %18, align 4
  %80 = zext i32 %79 to i64
  %81 = icmp ult i64 %80, 16
  br i1 %81, label %82, label %91

82:                                               ; preds = %78
  %83 = load ptr, ptr %19, align 8
  %84 = getelementptr inbounds %struct.fd_set, ptr %83, i32 0, i32 0
  %85 = load i32, ptr %18, align 4
  %86 = zext i32 %85 to i64
  %87 = getelementptr inbounds [16 x i64], ptr %84, i64 0, i64 %86
  store i64 0, ptr %87, align 8
  br label %88

88:                                               ; preds = %82
  %89 = load i32, ptr %18, align 4
  %90 = add i32 %89, 1
  store i32 %90, ptr %18, align 4
  br label %78

91:                                               ; preds = %78
  br label %92

92:                                               ; preds = %91
  %93 = load ptr, ptr %12, align 8
  %94 = getelementptr inbounds %struct.client_parallel_data, ptr %93, i32 0, i32 4
  %95 = load i32, ptr %94, align 8
  %96 = srem i32 %95, 64
  %97 = zext i32 %96 to i64
  %98 = shl i64 1, %97
  %99 = getelementptr inbounds %struct.fd_set, ptr %16, i32 0, i32 0
  %100 = load ptr, ptr %12, align 8
  %101 = getelementptr inbounds %struct.client_parallel_data, ptr %100, i32 0, i32 4
  %102 = load i32, ptr %101, align 8
  %103 = sdiv i32 %102, 64
  %104 = sext i32 %103 to i64
  %105 = getelementptr inbounds [16 x i64], ptr %99, i64 0, i64 %104
  %106 = load i64, ptr %105, align 8
  %107 = or i64 %106, %98
  store i64 %107, ptr %105, align 8
  br label %108

108:                                              ; preds = %92
  store ptr %17, ptr %21, align 8
  store i32 0, ptr %20, align 4
  br label %109

109:                                              ; preds = %119, %108
  %110 = load i32, ptr %20, align 4
  %111 = zext i32 %110 to i64
  %112 = icmp ult i64 %111, 16
  br i1 %112, label %113, label %122

113:                                              ; preds = %109
  %114 = load ptr, ptr %21, align 8
  %115 = getelementptr inbounds %struct.fd_set, ptr %114, i32 0, i32 0
  %116 = load i32, ptr %20, align 4
  %117 = zext i32 %116 to i64
  %118 = getelementptr inbounds [16 x i64], ptr %115, i64 0, i64 %117
  store i64 0, ptr %118, align 8
  br label %119

119:                                              ; preds = %113
  %120 = load i32, ptr %20, align 4
  %121 = add i32 %120, 1
  store i32 %121, ptr %20, align 4
  br label %109

122:                                              ; preds = %109
  br label %123

123:                                              ; preds = %122
  %124 = load ptr, ptr %12, align 8
  %125 = getelementptr inbounds %struct.client_parallel_data, ptr %124, i32 0, i32 4
  %126 = load i32, ptr %125, align 8
  %127 = srem i32 %126, 64
  %128 = zext i32 %127 to i64
  %129 = shl i64 1, %128
  %130 = getelementptr inbounds %struct.fd_set, ptr %17, i32 0, i32 0
  %131 = load ptr, ptr %12, align 8
  %132 = getelementptr inbounds %struct.client_parallel_data, ptr %131, i32 0, i32 4
  %133 = load i32, ptr %132, align 8
  %134 = sdiv i32 %133, 64
  %135 = sext i32 %134 to i64
  %136 = getelementptr inbounds [16 x i64], ptr %130, i64 0, i64 %135
  %137 = load i64, ptr %136, align 8
  %138 = or i64 %137, %129
  store i64 %138, ptr %136, align 8
  %139 = load ptr, ptr %12, align 8
  %140 = getelementptr inbounds %struct.client_parallel_data, ptr %139, i32 0, i32 4
  %141 = load i32, ptr %140, align 8
  %142 = add nsw i32 %141, 1
  %143 = call i32 @select(i32 noundef %142, ptr noundef %16, ptr noundef %17, ptr noundef null, ptr noundef null)
  %144 = icmp slt i32 %143, 0
  br i1 %144, label %145, label %155

145:                                              ; preds = %123
  %146 = call ptr @__errno_location() #8
  %147 = load i32, ptr %146, align 4
  %148 = icmp eq i32 %147, 4
  br i1 %148, label %149, label %150

149:                                              ; preds = %145
  br label %76

150:                                              ; preds = %145
  %151 = call ptr @__errno_location() #8
  %152 = load i32, ptr %151, align 4
  %153 = call ptr @strerror(i32 noundef %152) #7
  %154 = call i32 (i32, ptr, ...) @logg(i32 noundef 5, ptr noundef @.str.9, ptr noundef %153)
  store i32 22, ptr %11, align 4
  br label %254

155:                                              ; preds = %123
  %156 = getelementptr inbounds %struct.fd_set, ptr %16, i32 0, i32 0
  %157 = load ptr, ptr %12, align 8
  %158 = getelementptr inbounds %struct.client_parallel_data, ptr %157, i32 0, i32 4
  %159 = load i32, ptr %158, align 8
  %160 = sdiv i32 %159, 64
  %161 = sext i32 %160 to i64
  %162 = getelementptr inbounds [16 x i64], ptr %156, i64 0, i64 %161
  %163 = load i64, ptr %162, align 8
  %164 = load ptr, ptr %12, align 8
  %165 = getelementptr inbounds %struct.client_parallel_data, ptr %164, i32 0, i32 4
  %166 = load i32, ptr %165, align 8
  %167 = srem i32 %166, 64
  %168 = zext i32 %167 to i64
  %169 = shl i64 1, %168
  %170 = and i64 %163, %169
  %171 = icmp ne i64 %170, 0
  br i1 %171, label %172, label %178

172:                                              ; preds = %155
  %173 = load ptr, ptr %12, align 8
  %174 = call i32 @dspresult(ptr noundef %173)
  %175 = icmp ne i32 %174, 0
  br i1 %175, label %176, label %177

176:                                              ; preds = %172
  store i32 22, ptr %11, align 4
  br label %254

177:                                              ; preds = %172
  br label %76

178:                                              ; preds = %155
  %179 = getelementptr inbounds %struct.fd_set, ptr %17, i32 0, i32 0
  %180 = load ptr, ptr %12, align 8
  %181 = getelementptr inbounds %struct.client_parallel_data, ptr %180, i32 0, i32 4
  %182 = load i32, ptr %181, align 8
  %183 = sdiv i32 %182, 64
  %184 = sext i32 %183 to i64
  %185 = getelementptr inbounds [16 x i64], ptr %179, i64 0, i64 %184
  %186 = load i64, ptr %185, align 8
  %187 = load ptr, ptr %12, align 8
  %188 = getelementptr inbounds %struct.client_parallel_data, ptr %187, i32 0, i32 4
  %189 = load i32, ptr %188, align 8
  %190 = srem i32 %189, 64
  %191 = zext i32 %190 to i64
  %192 = shl i64 1, %191
  %193 = and i64 %186, %192
  %194 = icmp ne i64 %193, 0
  br i1 %194, label %195, label %196

195:                                              ; preds = %178
  br label %197

196:                                              ; preds = %178
  br label %76

197:                                              ; preds = %195
  %198 = load ptr, ptr %12, align 8
  %199 = getelementptr inbounds %struct.client_parallel_data, ptr %198, i32 0, i32 3
  %200 = load i32, ptr %199, align 4
  switch i32 %200, label %214 [
    i32 3, label %201
    i32 2, label %207
  ]

201:                                              ; preds = %197
  %202 = load ptr, ptr %12, align 8
  %203 = getelementptr inbounds %struct.client_parallel_data, ptr %202, i32 0, i32 4
  %204 = load i32, ptr %203, align 8
  %205 = load ptr, ptr %7, align 8
  %206 = call i32 @send_fdpass(i32 noundef %204, ptr noundef %205)
  store i32 %206, ptr %14, align 4
  br label %214

207:                                              ; preds = %197
  %208 = load ptr, ptr %12, align 8
  %209 = getelementptr inbounds %struct.client_parallel_data, ptr %208, i32 0, i32 4
  %210 = load i32, ptr %209, align 8
  %211 = load ptr, ptr %7, align 8
  %212 = load ptr, ptr @clamdopts, align 8
  %213 = call i32 @send_stream(i32 noundef %210, ptr noundef %211, ptr noundef %212)
  store i32 %213, ptr %14, align 4
  br label %214

214:                                              ; preds = %207, %201, %197
  %215 = load i32, ptr %14, align 4
  %216 = icmp sle i32 %215, 0
  br i1 %216, label %217, label %227

217:                                              ; preds = %214
  %218 = load ptr, ptr %12, align 8
  %219 = getelementptr inbounds %struct.client_parallel_data, ptr %218, i32 0, i32 6
  store i32 0, ptr %219, align 8
  %220 = load ptr, ptr %12, align 8
  %221 = getelementptr inbounds %struct.client_parallel_data, ptr %220, i32 0, i32 2
  %222 = load i32, ptr %221, align 8
  %223 = add nsw i32 %222, 1
  store i32 %223, ptr %221, align 8
  %224 = load i32, ptr %14, align 4
  %225 = icmp ne i32 %224, 0
  %226 = select i1 %225, i32 22, i32 0
  store i32 %226, ptr %11, align 4
  br label %254

227:                                              ; preds = %214
  %228 = call noalias ptr @malloc(i64 noundef 24) #9
  store ptr %228, ptr %13, align 8
  %229 = load ptr, ptr %13, align 8
  %230 = icmp ne ptr %229, null
  br i1 %230, label %236, label %231

231:                                              ; preds = %227
  %232 = call ptr @__errno_location() #8
  %233 = load i32, ptr %232, align 4
  %234 = call ptr @strerror(i32 noundef %233) #7
  %235 = call i32 (i32, ptr, ...) @logg(i32 noundef 5, ptr noundef @.str.10, ptr noundef %234)
  store i32 22, ptr %11, align 4
  br label %254

236:                                              ; preds = %227
  %237 = load ptr, ptr %12, align 8
  %238 = getelementptr inbounds %struct.client_parallel_data, ptr %237, i32 0, i32 5
  %239 = load i32, ptr %238, align 4
  %240 = add nsw i32 %239, 1
  store i32 %240, ptr %238, align 4
  %241 = load ptr, ptr %13, align 8
  %242 = getelementptr inbounds %struct.SCANID, ptr %241, i32 0, i32 0
  store i32 %240, ptr %242, align 8
  %243 = load ptr, ptr %7, align 8
  %244 = load ptr, ptr %13, align 8
  %245 = getelementptr inbounds %struct.SCANID, ptr %244, i32 0, i32 1
  store ptr %243, ptr %245, align 8
  %246 = load ptr, ptr %12, align 8
  %247 = getelementptr inbounds %struct.client_parallel_data, ptr %246, i32 0, i32 7
  %248 = load ptr, ptr %247, align 8
  %249 = load ptr, ptr %13, align 8
  %250 = getelementptr inbounds %struct.SCANID, ptr %249, i32 0, i32 2
  store ptr %248, ptr %250, align 8
  %251 = load ptr, ptr %13, align 8
  %252 = load ptr, ptr %12, align 8
  %253 = getelementptr inbounds %struct.client_parallel_data, ptr %252, i32 0, i32 7
  store ptr %251, ptr %253, align 8
  store ptr null, ptr %7, align 8
  store i32 0, ptr %11, align 4
  br label %254

254:                                              ; preds = %236, %231, %217, %176, %150, %73, %64, %58, %51, %44
  %255 = load ptr, ptr %7, align 8
  %256 = icmp ne ptr null, %255
  br i1 %256, label %257, label %259

257:                                              ; preds = %254
  %258 = load ptr, ptr %7, align 8
  call void @free(ptr noundef %258) #7
  br label %259

259:                                              ; preds = %257, %254
  %260 = load i32, ptr %11, align 4
  ret i32 %260
}