; Function Attrs: nounwind uwtable
define internal range(i32 0, 23) i32 @parallel_callback(ptr readnone captures(none) %0, ptr noundef %1, ptr readnone captures(none) %2, i32 noundef %3, ptr noundef readonly captures(none) %4) #0 {
  %6 = alloca ptr, align 8
  %7 = alloca %struct.fd_set, align 8
  %8 = alloca %struct.fd_set, align 8
  %9 = load ptr, ptr %4, align 8
  store ptr null, ptr %6, align 8
  %.not = icmp eq i32 %3, 1
  br i1 %.not, label %17, label %10

10:                                               ; preds = %5
  %11 = call i32 @cli_realpath(ptr noundef %1, ptr noundef nonnull %6) #11
  %.not59 = icmp eq i32 %11, 0
  br i1 %.not59, label %15, label %12

12:                                               ; preds = %10
  %13 = call i32 (i32, ptr, ...) @logg(i32 noundef 2, ptr noundef nonnull @.str.3, ptr noundef %1) #11
  %14 = call i32 (i32, ptr, ...) @logg(i32 noundef 2, ptr noundef nonnull @.str.4) #11
  br label %17

15:                                               ; preds = %10
  call void @free(ptr noundef %1) #11
  %16 = load ptr, ptr %6, align 8
  br label %17

17:                                               ; preds = %12, %15, %5
  %.0 = phi ptr [ %1, %12 ], [ %16, %15 ], [ %1, %5 ]
  %18 = load ptr, ptr @clamdopts, align 8
  %19 = call i32 @chkpath(ptr noundef %.0, ptr noundef %18) #11
  %.not60 = icmp eq i32 %19, 0
  br i1 %.not60, label %20, label %.loopexit

20:                                               ; preds = %17
  %21 = getelementptr inbounds nuw i8, ptr %9, i64 4
  %22 = load i32, ptr %21, align 4
  %23 = add nsw i32 %22, 1
  store i32 %23, ptr %21, align 4
  switch i32 %3, label %.preheader [
    i32 3, label %25
    i32 2, label %30
    i32 6, label %35
    i32 5, label %37
    i32 4, label %.loopexit
    i32 1, label %.loopexit
  ]

.preheader:                                       ; preds = %20
  %24 = getelementptr inbounds nuw i8, ptr %9, i64 16
  br label %.backedge

25:                                               ; preds = %20
  %26 = call i32 (i32, ptr, ...) @logg(i32 noundef 5, ptr noundef nonnull @.str.5, ptr noundef %.0) #11
  %27 = getelementptr inbounds nuw i8, ptr %9, i64 8
  %28 = load i32, ptr %27, align 8
  %29 = add nsw i32 %28, 1
  store i32 %29, ptr %27, align 8
  br label %.loopexit

30:                                               ; preds = %20
  %31 = call i32 (i32, ptr, ...) @logg(i32 noundef 5, ptr noundef nonnull @.str.6) #11
  %32 = getelementptr inbounds nuw i8, ptr %9, i64 8
  %33 = load i32, ptr %32, align 8
  %34 = add nsw i32 %33, 1
  store i32 %34, ptr %32, align 8
  br label %.loopexit

35:                                               ; preds = %20
  %36 = call i32 (i32, ptr, ...) @logg(i32 noundef 4, ptr noundef nonnull @.str.7) #11
  br label %.loopexit

37:                                               ; preds = %20
  %38 = call i32 (i32, ptr, ...) @logg(i32 noundef 4, ptr noundef nonnull @.str.8, ptr noundef %.0) #11
  %39 = getelementptr inbounds nuw i8, ptr %9, i64 8
  %40 = load i32, ptr %39, align 8
  %41 = add nsw i32 %40, 1
  store i32 %41, ptr %39, align 8
  br label %.loopexit

.backedge:                                        ; preds = %.backedge.backedge, %.preheader
  call void @llvm.memset.p0.i64(ptr noundef nonnull align 8 dereferenceable(128) %7, i8 0, i64 128, i1 false)
  %42 = load i32, ptr %24, align 8
  %43 = srem i32 %42, 64
  %44 = zext nneg i32 %43 to i64
  %45 = shl nuw i64 1, %44
  %46 = sdiv i32 %42, 64
  %47 = sext i32 %46 to i64
  %48 = getelementptr inbounds [16 x i64], ptr %7, i64 0, i64 %47
  %49 = load i64, ptr %48, align 8
  %50 = or i64 %45, %49
  store i64 %50, ptr %48, align 8
  call void @llvm.memset.p0.i64(ptr noundef nonnull align 8 dereferenceable(128) %8, i8 0, i64 128, i1 false)
  %51 = getelementptr inbounds [16 x i64], ptr %8, i64 0, i64 %47
  %52 = load i64, ptr %51, align 8
  %53 = or i64 %45, %52
  store i64 %53, ptr %51, align 8
  %54 = add nsw i32 %42, 1
  %55 = call i32 @select(i32 noundef %54, ptr noundef nonnull %7, ptr noundef nonnull %8, ptr noundef null, ptr noundef null) #11
  %56 = icmp slt i32 %55, 0
  br i1 %56, label %57, label %64

57:                                               ; preds = %.backedge
  %58 = tail call ptr @__errno_location() #12
  %59 = load i32, ptr %58, align 4
  %60 = icmp eq i32 %59, 4
  br i1 %60, label %.backedge.backedge, label %61

.backedge.backedge:                               ; preds = %57, %74, %76
  br label %.backedge

61:                                               ; preds = %57
  %62 = call ptr @strerror(i32 noundef %59) #11
  %63 = call i32 (i32, ptr, ...) @logg(i32 noundef 5, ptr noundef nonnull @.str.9, ptr noundef %62) #11
  br label %.loopexit

64:                                               ; preds = %.backedge
  %65 = load i32, ptr %24, align 8
  %66 = sdiv i32 %65, 64
  %67 = sext i32 %66 to i64
  %68 = getelementptr inbounds [16 x i64], ptr %7, i64 0, i64 %67
  %69 = load i64, ptr %68, align 8
  %70 = srem i32 %65, 64
  %71 = zext nneg i32 %70 to i64
  %72 = shl nuw i64 1, %71
  %73 = and i64 %72, %69
  %.not61 = icmp eq i64 %73, 0
  br i1 %.not61, label %76, label %74

74:                                               ; preds = %64
  %75 = call fastcc i32 @dspresult(ptr noundef nonnull %9)
  %.not65 = icmp eq i32 %75, 0
  br i1 %.not65, label %.backedge.backedge, label %.loopexit

76:                                               ; preds = %64
  %77 = getelementptr inbounds [16 x i64], ptr %8, i64 0, i64 %67
  %78 = load i64, ptr %77, align 8
  %79 = and i64 %78, %72
  %.not62 = icmp eq i64 %79, 0
  br i1 %.not62, label %.backedge.backedge, label %80

80:                                               ; preds = %76
  %81 = getelementptr inbounds nuw i8, ptr %9, i64 12
  %82 = load i32, ptr %81, align 4
  switch i32 %82, label %.thread69 [
    i32 3, label %87
    i32 2, label %89
  ]

.thread69:                                        ; preds = %80
  %83 = getelementptr inbounds nuw i8, ptr %9, i64 24
  store i32 0, ptr %83, align 8
  %84 = getelementptr inbounds nuw i8, ptr %9, i64 8
  %85 = load i32, ptr %84, align 8
  %86 = add nsw i32 %85, 1
  store i32 %86, ptr %84, align 8
  br label %99

87:                                               ; preds = %80
  %88 = call i32 @send_fdpass(i32 noundef %65, ptr noundef %.0) #11
  br label %92

89:                                               ; preds = %80
  %90 = load ptr, ptr @clamdopts, align 8
  %91 = call i32 @send_stream(i32 noundef %65, ptr noundef %.0, ptr noundef %90) #11
  br label %92

92:                                               ; preds = %89, %87
  %.054 = phi i32 [ %91, %89 ], [ %88, %87 ]
  %.054.fr = freeze i32 %.054
  %93 = icmp slt i32 %.054.fr, 1
  br i1 %93, label %94, label %100

94:                                               ; preds = %92
  %95 = getelementptr inbounds nuw i8, ptr %9, i64 24
  store i32 0, ptr %95, align 8
  %96 = getelementptr inbounds nuw i8, ptr %9, i64 8
  %97 = load i32, ptr %96, align 8
  %98 = add nsw i32 %97, 1
  store i32 %98, ptr %96, align 8
  %.not64 = icmp eq i32 %.054.fr, 0
  br i1 %.not64, label %99, label %.loopexit

99:                                               ; preds = %.thread69, %94
  br label %.loopexit

100:                                              ; preds = %92
  %101 = call noalias dereferenceable_or_null(24) ptr @malloc(i64 noundef 24) #13
  %.not63 = icmp eq ptr %101, null
  br i1 %.not63, label %102, label %.thread73

102:                                              ; preds = %100
  %103 = tail call ptr @__errno_location() #12
  %104 = load i32, ptr %103, align 4
  %105 = call ptr @strerror(i32 noundef %104) #11
  %106 = call i32 (i32, ptr, ...) @logg(i32 noundef 5, ptr noundef nonnull @.str.10, ptr noundef %105) #11
  br label %.loopexit

.thread73:                                        ; preds = %100
  %107 = getelementptr inbounds nuw i8, ptr %9, i64 20
  %108 = load i32, ptr %107, align 4
  %109 = add nsw i32 %108, 1
  store i32 %109, ptr %107, align 4
  store i32 %109, ptr %101, align 8
  %110 = getelementptr inbounds nuw i8, ptr %101, i64 8
  store ptr %.0, ptr %110, align 8
  %111 = getelementptr inbounds nuw i8, ptr %9, i64 32
  %112 = load ptr, ptr %111, align 8
  %113 = getelementptr inbounds nuw i8, ptr %101, i64 16
  store ptr %112, ptr %113, align 8
  store ptr %101, ptr %111, align 8
  br label %115

.loopexit:                                        ; preds = %74, %99, %94, %20, %20, %37, %17, %102, %61, %35, %30, %25
  %.052 = phi i32 [ 22, %61 ], [ 22, %102 ], [ 0, %35 ], [ 20, %30 ], [ 0, %25 ], [ 0, %17 ], [ 0, %37 ], [ 0, %20 ], [ 0, %20 ], [ 0, %99 ], [ 22, %94 ], [ 22, %74 ]
  %.not66 = icmp eq ptr %.0, null
  br i1 %.not66, label %115, label %114

114:                                              ; preds = %.loopexit
  call void @free(ptr noundef nonnull %.0) #11
  br label %115

115:                                              ; preds = %.thread73, %114, %.loopexit
  %.05277 = phi i32 [ 0, %.thread73 ], [ %.052, %114 ], [ %.052, %.loopexit ]
  ret i32 %.05277
}